target datalayout = "e-m:e-p270:32:32-p271:32:32-p272:64:64-i64:64-i128:128-f80:128-n8:16:32:64-S128"
target triple = "x86_64-pc-linux-gnu"

%"class.cv::Mat" = type { i32, i32, i32, i32, ptr, ptr, ptr, ptr, ptr, ptr, %"struct.cv::MatSize", %"struct.cv::MatStep" }
%"struct.cv::MatSize" = type { ptr }
%"struct.cv::MatStep" = type { ptr, [2 x i64] }
%"class.cv::face::FacemarkLBF::BBox" = type { double, double, double, double, double, double, double, double }

; Function Attrs: inlinehint mustprogress nounwind uwtable
define linkonce_odr hidden noundef nonnull align 8 dereferenceable(8) ptr @_ZN2cv3Mat2atIdEERT_ii(ptr noundef nonnull align 8 dereferenceable(96) %0, i32 noundef %1, i32 noundef %2) #6 comdat align 2 {
  %4 = alloca ptr, align 8
  %5 = alloca i32, align 4
  %6 = alloca i32, align 4
  store ptr %0, ptr %4, align 8, !tbaa !159
  store i32 %1, ptr %5, align 4, !tbaa !37
  store i32 %2, ptr %6, align 4, !tbaa !37
  %7 = load ptr, ptr %4, align 8
  %8 = getelementptr inbounds nuw %"class.cv::Mat", ptr %7, i32 0, i32 4
  %9 = load ptr, ptr %8, align 8, !tbaa !167
  %10 = getelementptr inbounds nuw %"class.cv::Mat", ptr %7, i32 0, i32 11
  %11 = getelementptr inbounds nuw %"struct.cv::MatStep", ptr %10, i32 0, i32 0
  %12 = load ptr, ptr %11, align 8, !tbaa !264
  %13 = getelementptr inbounds i64, ptr %12, i64 0
  %14 = load i64, ptr %13, align 8, !tbaa !65
  %15 = load i32, ptr %5, align 4, !tbaa !37
  %16 = sext i32 %15 to i64
  %17 = mul i64 %14, %16
  %18 = getelementptr inbounds nuw i8, ptr %9, i64 %17
  %19 = load i32, ptr %6, align 4, !tbaa !37
  %20 = sext i32 %19 to i64
  %21 = getelementptr inbounds double, ptr %18, i64 %20
  ret ptr %21
}

; Function Attrs: inlinehint mustprogress nounwind uwtable
define linkonce_odr hidden noundef nonnull align 8 dereferenceable(8) ptr @_ZNK2cv3Mat2atIdEERKT_ii(ptr noundef nonnull align 8 dereferenceable(96) %0, i32 noundef %1, i32 noundef %2) #6 comdat align 2 {
  %4 = alloca ptr, align 8
  %5 = alloca i32, align 4
  %6 = alloca i32, align 4
  store ptr %0, ptr %4, align 8, !tbaa !159
  store i32 %1, ptr %5, align 4, !tbaa !37
  store i32 %2, ptr %6, align 4, !tbaa !37
  %7 = load ptr, ptr %4, align 8
  %8 = getelementptr inbounds nuw %"class.cv::Mat", ptr %7, i32 0, i32 4
  %9 = load ptr, ptr %8, align 8, !tbaa !167
  %10 = getelementptr inbounds nuw %"class.cv::Mat", ptr %7, i32 0, i32 11
  %11 = getelementptr inbounds nuw %"struct.cv::MatStep", ptr %10, i32 0, i32 0
  %12 = load ptr, ptr %11, align 8, !tbaa !264
  %13 = getelementptr inbounds i64, ptr %12, i64 0
  %14 = load i64, ptr %13, align 8, !tbaa !65
  %15 = load i32, ptr %5, align 4, !tbaa !37
  %16 = sext i32 %15 to i64
  %17 = mul i64 %14, %16
  %18 = getelementptr inbounds nuw i8, ptr %9, i64 %17
  %19 = load i32, ptr %6, align 4, !tbaa !37
  %20 = sext i32 %19 to i64
  %21 = getelementptr inbounds double, ptr %18, i64 %20
  ret ptr %21
}

; Function Attrs: mustprogress uwtable
define void @_ZNK2cv4face11FacemarkLBF4BBox9reprojectERKNS_3MatE(ptr dead_on_unwind noalias writable sret(%"class.cv::Mat") align 8 %0, ptr noundef nonnull align 8 dereferenceable(64) %1, ptr noundef nonnull align 8 dereferenceable(96) %2) #4 align 2 personality ptr @__gxx_personality_v0 {
  %4 = alloca ptr, align 8
  %5 = alloca ptr, align 8
  %6 = alloca ptr, align 8
  %7 = alloca i1, align 1
  %8 = alloca i32, align 4
  %9 = alloca ptr, align 8
  %10 = alloca i32, align 4
  store ptr %0, ptr %4, align 8
  store ptr %1, ptr %5, align 8, !tbaa !225
  store ptr %2, ptr %6, align 8, !tbaa !159
  %11 = load ptr, ptr %5, align 8
  store i1 false, ptr %7, align 1
  %12 = load ptr, ptr %6, align 8, !tbaa !159
  %13 = getelementptr inbounds nuw %"class.cv::Mat", ptr %12, i32 0, i32 2
  %14 = load i32, ptr %13, align 8, !tbaa !165
  %15 = load ptr, ptr %6, align 8, !tbaa !159
  %16 = getelementptr inbounds nuw %"class.cv::Mat", ptr %15, i32 0, i32 3
  %17 = load i32, ptr %16, align 4, !tbaa !166
  call void @_ZN2cv3MatC1Eiii(ptr noundef nonnull align 8 dereferenceable(96) %0, i32 noundef %14, i32 noundef %17, i32 noundef 6)
  call void @llvm.lifetime.start.p0(i64 4, ptr %8) #3
  store i32 0, ptr %8, align 4, !tbaa !37
  br label %18

18:                                               ; preds = %52, %3
  %19 = load i32, ptr %8, align 4, !tbaa !37
  %20 = load ptr, ptr %6, align 8, !tbaa !159
  %21 = getelementptr inbounds nuw %"class.cv::Mat", ptr %20, i32 0, i32 2
  %22 = load i32, ptr %21, align 8, !tbaa !165
  %23 = icmp slt i32 %19, %22
  br i1 %23, label %25, label %24

24:                                               ; preds = %18
  call void @llvm.lifetime.end.p0(i64 4, ptr %8) #3
  br label %59

25:                                               ; preds = %18
  %26 = load ptr, ptr %6, align 8, !tbaa !159
  %27 = load i32, ptr %8, align 4, !tbaa !37
  %28 = invoke noundef nonnull align 8 dereferenceable(8) ptr @_ZNK2cv3Mat2atIdEERKT_ii(ptr noundef nonnull align 8 dereferenceable(96) %26, i32 noundef %27, i32 noundef 0)
          to label %29 unwind label %55

29:                                               ; preds = %25
  %30 = load double, ptr %28, align 8, !tbaa !191
  %31 = getelementptr inbounds nuw %"class.cv::face::FacemarkLBF::BBox", ptr %11, i32 0, i32 4
  %32 = load double, ptr %31, align 8, !tbaa !226
  %33 = getelementptr inbounds nuw %"class.cv::face::FacemarkLBF::BBox", ptr %11, i32 0, i32 2
  %34 = load double, ptr %33, align 8, !tbaa !227
  %35 = call double @llvm.fmuladd.f64(double %30, double %32, double %34)
  %36 = load i32, ptr %8, align 4, !tbaa !37
  %37 = invoke noundef nonnull align 8 dereferenceable(8) ptr @_ZN2cv3Mat2atIdEERT_ii(ptr noundef nonnull align 8 dereferenceable(96) %0, i32 noundef %36, i32 noundef 0)
          to label %38 unwind label %55

38:                                               ; preds = %29
  store double %35, ptr %37, align 8, !tbaa !191
  %39 = load ptr, ptr %6, align 8, !tbaa !159
  %40 = load i32, ptr %8, align 4, !tbaa !37
  %41 = invoke noundef nonnull align 8 dereferenceable(8) ptr @_ZNK2cv3Mat2atIdEERKT_ii(ptr noundef nonnull align 8 dereferenceable(96) %39, i32 noundef %40, i32 noundef 1)
          to label %42 unwind label %55

42:                                               ; preds = %38
  %43 = load double, ptr %41, align 8, !tbaa !191
  %44 = getelementptr inbounds nuw %"class.cv::face::FacemarkLBF::BBox", ptr %11, i32 0, i32 5
  %45 = load double, ptr %44, align 8, !tbaa !228
  %46 = getelementptr inbounds nuw %"class.cv::face::FacemarkLBF::BBox", ptr %11, i32 0, i32 3
  %47 = load double, ptr %46, align 8, !tbaa !229
  %48 = call double @llvm.fmuladd.f64(double %43, double %45, double %47)
  %49 = load i32, ptr %8, align 4, !tbaa !37
  %50 = invoke noundef nonnull align 8 dereferenceable(8) ptr @_ZN2cv3Mat2atIdEERT_ii(ptr noundef nonnull align 8 dereferenceable(96) %0, i32 noundef %49, i32 noundef 1)
          to label %51 unwind label %55

51:                                               ; preds = %42
  store double %48, ptr %50, align 8, !tbaa !191
  br label %52

52:                                               ; preds = %51
  %53 = load i32, ptr %8, align 4, !tbaa !37
  %54 = add nsw i32 %53, 1
  store i32 %54, ptr %8, align 4, !tbaa !37
  br label %18, !llvm.loop !230

55:                                               ; preds = %42, %38, %29, %25
  %56 = landingpad { ptr, i32 }
          cleanup
  %57 = extractvalue { ptr, i32 } %56, 0
  store ptr %57, ptr %9, align 8
  %58 = extractvalue { ptr, i32 } %56, 1
  store i32 %58, ptr %10, align 4
  call void @llvm.lifetime.end.p0(i64 4, ptr %8) #3
  call void @_ZN2cv3MatD1Ev(ptr noundef nonnull align 8 dereferenceable(96) %0) #3
  br label %63

59:                                               ; preds = %24
  store i1 true, ptr %7, align 1
  %60 = load i1, ptr %7, align 1
  br i1 %60, label %62, label %61

61:                                               ; preds = %59
  call void @_ZN2cv3MatD1Ev(ptr noundef nonnull align 8 dereferenceable(96) %0) #3
  br label %62

62:                                               ; preds = %61, %59
  ret void

63:                                               ; preds = %55
  %64 = load ptr, ptr %9, align 8
  %65 = load i32, ptr %10, align 4
  %66 = insertvalue { ptr, i32 } poison, ptr %64, 0
  %67 = insertvalue { ptr, i32 } %66, i32 %65, 1
  resume { ptr, i32 } %67
}